target datalayout = "e-m:e-p270:32:32-p271:32:32-p272:64:64-i64:64-i128:128-f80:128-n8:16:32:64-S128"
target triple = "x86_64-pc-linux-gnu"

%struct.slurmdb_federation_rec_t = type { ptr, i32, ptr }

@fed_mgr_fed_rec = dso_local global ptr null, align 8

; Function Attrs: nounwind uwtable
define dso_local ptr @fed_mgr_get_cluster_by_name(ptr noundef %0) #0 {
  %2 = alloca ptr, align 8
  %3 = alloca ptr, align 8
  store ptr %0, ptr %3, align 8
  %4 = load ptr, ptr @fed_mgr_fed_rec, align 8
  %5 = icmp ne ptr %4, null
  br i1 %5, label %7, label %6

6:                                                ; preds = %1
  store ptr null, ptr %2, align 8
  br label %13

7:                                                ; preds = %1
  %8 = load ptr, ptr @fed_mgr_fed_rec, align 8
  %9 = getelementptr inbounds nuw %struct.slurmdb_federation_rec_t, ptr %8, i32 0, i32 2
  %10 = load ptr, ptr %9, align 8
  %11 = load ptr, ptr %3, align 8
  %12 = call ptr @list_find_first(ptr noundef %10, ptr noundef @slurmdb_find_cluster_in_list, ptr noundef %11)
  store ptr %12, ptr %2, align 8
  br label %13

13:                                               ; preds = %7, %6
  %14 = load ptr, ptr %2, align 8
  ret ptr %14
}