; Function Attrs: nounwind uwtable
define dso_local ptr @fed_mgr_get_cluster_by_name(ptr noundef %0) local_unnamed_addr #0 {
  %2 = load ptr, ptr @fed_mgr_fed_rec, align 8
  %.not = icmp eq ptr %2, null
  br i1 %.not, label %7, label %3

3:                                                ; preds = %1
  %4 = getelementptr inbounds nuw i8, ptr %2, i64 16
  %5 = load ptr, ptr %4, align 8
  %6 = tail call ptr @list_find_first(ptr noundef %5, ptr noundef nonnull @slurmdb_find_cluster_in_list, ptr noundef %0) #16
  br label %7

7:                                                ; preds = %1, %3
  %.0 = phi ptr [ %6, %3 ], [ null, %1 ]
  ret ptr %.0
}